target datalayout = "e-m:e-p270:32:32-p271:32:32-p272:64:64-i64:64-i128:128-f80:128-n8:16:32:64-S128"
target triple = "x86_64-pc-linux-gnu"

%class.QColor = type <{ i32, %"union.QColor::CT", [2 x i8] }>
%"union.QColor::CT" = type { %struct.anon.20 }
%struct.anon.20 = type { i16, i16, i16, i16, i16 }
%class.QRectF = type { double, double, double, double }
%class.pcolor = type { %class.QColor.base, [2 x i8] }
%class.QColor.base = type <{ i32, %"union.QColor::CT" }>

; Function Attrs: mustprogress nounwind uwtable
define linkonce_odr void @_ZN6QColor2CTC2Ettttt(ptr noundef nonnull align 2 dereferenceable(10) %0, i16 noundef zeroext %1, i16 noundef zeroext %2, i16 noundef zeroext %3, i16 noundef zeroext %4, i16 noundef zeroext %5) unnamed_addr #1 comdat align 2 {
  %7 = alloca ptr, align 8
  %8 = alloca i16, align 2
  %9 = alloca i16, align 2
  %10 = alloca i16, align 2
  %11 = alloca i16, align 2
  %12 = alloca i16, align 2
  store ptr %0, ptr %7, align 8
  store i16 %1, ptr %8, align 2
  store i16 %2, ptr %9, align 2
  store i16 %3, ptr %10, align 2
  store i16 %4, ptr %11, align 2
  store i16 %5, ptr %12, align 2
  %13 = load ptr, ptr %7, align 8
  %14 = getelementptr inbounds [5 x i16], ptr %13, i64 0, i64 0
  %15 = load i16, ptr %8, align 2
  store i16 %15, ptr %14, align 2
  %16 = getelementptr inbounds i16, ptr %14, i64 1
  %17 = load i16, ptr %9, align 2
  store i16 %17, ptr %16, align 2
  %18 = getelementptr inbounds i16, ptr %16, i64 1
  %19 = load i16, ptr %10, align 2
  store i16 %19, ptr %18, align 2
  %20 = getelementptr inbounds i16, ptr %18, i64 1
  %21 = load i16, ptr %11, align 2
  store i16 %21, ptr %20, align 2
  %22 = getelementptr inbounds i16, ptr %20, i64 1
  %23 = load i16, ptr %12, align 2
  store i16 %23, ptr %22, align 2
  ret void
}

; Function Attrs: mustprogress nounwind willreturn memory(none) uwtable
define linkonce_odr noundef zeroext i1 @_ZN6QColor11isRgbaValidEiiii(i32 noundef %0, i32 noundef %1, i32 noundef %2, i32 noundef %3) #11 comdat align 2 {
  %5 = alloca i32, align 4
  %6 = alloca i32, align 4
  %7 = alloca i32, align 4
  %8 = alloca i32, align 4
  store i32 %0, ptr %5, align 4
  store i32 %1, ptr %6, align 4
  store i32 %2, ptr %7, align 4
  store i32 %3, ptr %8, align 4
  %9 = load i32, ptr %5, align 4
  %10 = icmp ule i32 %9, 255
  br i1 %10, label %11, label %20

11:                                               ; preds = %4
  %12 = load i32, ptr %6, align 4
  %13 = icmp ule i32 %12, 255
  br i1 %13, label %14, label %20

14:                                               ; preds = %11
  %15 = load i32, ptr %7, align 4
  %16 = icmp ule i32 %15, 255
  br i1 %16, label %17, label %20

17:                                               ; preds = %14
  %18 = load i32, ptr %8, align 4
  %19 = icmp ule i32 %18, 255
  br label %20

20:                                               ; preds = %17, %14, %11, %4
  %21 = phi i1 [ false, %14 ], [ false, %11 ], [ false, %4 ], [ %19, %17 ]
  ret i1 %21
}

; Function Attrs: mustprogress nounwind uwtable
define linkonce_odr void @_ZN6QColorC2Eiiii(ptr noundef nonnull align 4 dereferenceable(14) %0, i32 noundef %1, i32 noundef %2, i32 noundef %3, i32 noundef %4) unnamed_addr #1 comdat align 2 {
  %6 = alloca ptr, align 8
  %7 = alloca i32, align 4
  %8 = alloca i32, align 4
  %9 = alloca i32, align 4
  %10 = alloca i32, align 4
  store ptr %0, ptr %6, align 8
  store i32 %1, ptr %7, align 4
  store i32 %2, ptr %8, align 4
  store i32 %3, ptr %9, align 4
  store i32 %4, ptr %10, align 4
  %11 = load ptr, ptr %6, align 8
  %12 = getelementptr inbounds %class.QColor, ptr %11, i32 0, i32 0
  %13 = load i32, ptr %7, align 4
  %14 = load i32, ptr %8, align 4
  %15 = load i32, ptr %9, align 4
  %16 = load i32, ptr %10, align 4
  %17 = call noundef zeroext i1 @_ZN6QColor11isRgbaValidEiiii(i32 noundef %13, i32 noundef %14, i32 noundef %15, i32 noundef %16) #21
  %18 = select i1 %17, i32 1, i32 0
  store i32 %18, ptr %12, align 4
  %19 = getelementptr inbounds %class.QColor, ptr %11, i32 0, i32 1
  %20 = getelementptr inbounds %class.QColor, ptr %11, i32 0, i32 0
  %21 = load i32, ptr %20, align 4
  %22 = icmp eq i32 %21, 1
  br i1 %22, label %23, label %26

23:                                               ; preds = %5
  %24 = load i32, ptr %10, align 4
  %25 = mul i32 %24, 257
  br label %27

26:                                               ; preds = %5
  br label %27

27:                                               ; preds = %26, %23
  %28 = phi i32 [ %25, %23 ], [ 0, %26 ]
  %29 = trunc i32 %28 to i16
  %30 = getelementptr inbounds %class.QColor, ptr %11, i32 0, i32 0
  %31 = load i32, ptr %30, align 4
  %32 = icmp eq i32 %31, 1
  br i1 %32, label %33, label %36

33:                                               ; preds = %27
  %34 = load i32, ptr %7, align 4
  %35 = mul i32 %34, 257
  br label %37

36:                                               ; preds = %27
  br label %37

37:                                               ; preds = %36, %33
  %38 = phi i32 [ %35, %33 ], [ 0, %36 ]
  %39 = trunc i32 %38 to i16
  %40 = getelementptr inbounds %class.QColor, ptr %11, i32 0, i32 0
  %41 = load i32, ptr %40, align 4
  %42 = icmp eq i32 %41, 1
  br i1 %42, label %43, label %46

43:                                               ; preds = %37
  %44 = load i32, ptr %8, align 4
  %45 = mul i32 %44, 257
  br label %47

46:                                               ; preds = %37
  br label %47

47:                                               ; preds = %46, %43
  %48 = phi i32 [ %45, %43 ], [ 0, %46 ]
  %49 = trunc i32 %48 to i16
  %50 = getelementptr inbounds %class.QColor, ptr %11, i32 0, i32 0
  %51 = load i32, ptr %50, align 4
  %52 = icmp eq i32 %51, 1
  br i1 %52, label %53, label %56

53:                                               ; preds = %47
  %54 = load i32, ptr %9, align 4
  %55 = mul i32 %54, 257
  br label %57

56:                                               ; preds = %47
  br label %57

57:                                               ; preds = %56, %53
  %58 = phi i32 [ %55, %53 ], [ 0, %56 ]
  %59 = trunc i32 %58 to i16
  call void @_ZN6QColor2CTC2Ettttt(ptr noundef nonnull align 2 dereferenceable(10) %19, i16 noundef zeroext %29, i16 noundef zeroext %39, i16 noundef zeroext %49, i16 noundef zeroext %59, i16 noundef zeroext 0) #13
  ret void
}

; Function Attrs: mustprogress nounwind uwtable
define internal void @_ZL9reset_rgbPA3_f(ptr noundef %0) #1 {
  %2 = alloca ptr, align 8
  %3 = alloca i32, align 4
  store ptr %0, ptr %2, align 8
  store i32 0, ptr %3, align 4
  br label %4

4:                                                ; preds = %23, %1
  %5 = load i32, ptr %3, align 4
  %6 = icmp slt i32 %5, 64
  br i1 %6, label %7, label %26

7:                                                ; preds = %4
  %8 = load ptr, ptr %2, align 8
  %9 = load i32, ptr %3, align 4
  %10 = sext i32 %9 to i64
  %11 = getelementptr [3 x float], ptr %8, i64 %10
  %12 = getelementptr [3 x float], ptr %11, i64 0, i64 2
  store float 1.000000e+00, ptr %12, align 4
  %13 = load ptr, ptr %2, align 8
  %14 = load i32, ptr %3, align 4
  %15 = sext i32 %14 to i64
  %16 = getelementptr [3 x float], ptr %13, i64 %15
  %17 = getelementptr [3 x float], ptr %16, i64 0, i64 1
  store float 1.000000e+00, ptr %17, align 4
  %18 = load ptr, ptr %2, align 8
  %19 = load i32, ptr %3, align 4
  %20 = sext i32 %19 to i64
  %21 = getelementptr [3 x float], ptr %18, i64 %20
  %22 = getelementptr [3 x float], ptr %21, i64 0, i64 0
  store float 1.000000e+00, ptr %22, align 4
  br label %23

23:                                               ; preds = %7
  %24 = load i32, ptr %3, align 4
  %25 = add i32 %24, 1
  store i32 %25, ptr %3, align 4
  br label %4, !llvm.loop !8

26:                                               ; preds = %4
  ret void
}

; Function Attrs: mustprogress nounwind uwtable
define linkonce_odr void @_ZN6pcolorC2Efff(ptr noundef nonnull align 4 dereferenceable(14) %0, float noundef %1, float noundef %2, float noundef %3) unnamed_addr #1 comdat align 2 {
  %5 = alloca ptr, align 8
  %6 = alloca float, align 4
  %7 = alloca float, align 4
  %8 = alloca float, align 4
  store ptr %0, ptr %5, align 8
  store float %1, ptr %6, align 4
  store float %2, ptr %7, align 4
  store float %3, ptr %8, align 4
  %9 = load ptr, ptr %5, align 8
  %10 = load float, ptr %6, align 4
  %11 = call float @llvm.fmuladd.f32(float %10, float 0x3FE99999A0000000, float 0x3FB99999A0000000)
  %12 = fmul float 2.550000e+02, %11
  %13 = fptosi float %12 to i32
  %14 = load float, ptr %7, align 4
  %15 = call float @llvm.fmuladd.f32(float %14, float 0x3FE99999A0000000, float 0x3FB99999A0000000)
  %16 = fmul float 2.550000e+02, %15
  %17 = fptosi float %16 to i32
  %18 = load float, ptr %8, align 4
  %19 = call float @llvm.fmuladd.f32(float %18, float 0x3FE99999A0000000, float 0x3FB99999A0000000)
  %20 = fmul float 2.550000e+02, %19
  %21 = fptosi float %20 to i32
  call void @_ZN6QColorC2Eiiii(ptr noundef nonnull align 4 dereferenceable(14) %9, i32 noundef %13, i32 noundef %17, i32 noundef %21, i32 noundef 255) #13
  ret void
}

; Function Attrs: mustprogress nounwind uwtable
define linkonce_odr void @_ZN6QRectFC2Edddd(ptr noundef nonnull align 8 dereferenceable(32) %0, double noundef %1, double noundef %2, double noundef %3, double noundef %4) unnamed_addr #1 comdat align 2 {
  %6 = alloca ptr, align 8
  %7 = alloca double, align 8
  %8 = alloca double, align 8
  %9 = alloca double, align 8
  %10 = alloca double, align 8
  store ptr %0, ptr %6, align 8
  store double %1, ptr %7, align 8
  store double %2, ptr %8, align 8
  store double %3, ptr %9, align 8
  store double %4, ptr %10, align 8
  %11 = load ptr, ptr %6, align 8
  %12 = getelementptr inbounds %class.QRectF, ptr %11, i32 0, i32 0
  %13 = load double, ptr %7, align 8
  store double %13, ptr %12, align 8
  %14 = getelementptr inbounds %class.QRectF, ptr %11, i32 0, i32 1
  %15 = load double, ptr %8, align 8
  store double %15, ptr %14, align 8
  %16 = getelementptr inbounds %class.QRectF, ptr %11, i32 0, i32 2
  %17 = load double, ptr %9, align 8
  store double %17, ptr %16, align 8
  %18 = getelementptr inbounds %class.QRectF, ptr %11, i32 0, i32 3
  %19 = load double, ptr %10, align 8
  store double %19, ptr %18, align 8
  ret void
}

; Function Attrs: mustprogress uwtable
define internal void @_ZL13render_pixelsR8QPainteriiPA3_ff(ptr noundef nonnull align 8 dereferenceable(8) %0, i32 noundef %1, i32 noundef %2, ptr noundef %3, float noundef %4) #0 {
  %6 = alloca ptr, align 8
  %7 = alloca i32, align 4
  %8 = alloca i32, align 4
  %9 = alloca ptr, align 8
  %10 = alloca float, align 4
  %11 = alloca i32, align 4
  %12 = alloca i32, align 4
  %13 = alloca %class.QRectF, align 8
  %14 = alloca %class.pcolor, align 4
  store ptr %0, ptr %6, align 8
  store i32 %1, ptr %7, align 4
  store i32 %2, ptr %8, align 4
  store ptr %3, ptr %9, align 8
  store float %4, ptr %10, align 4
  store i32 0, ptr %11, align 4
  store i32 1, ptr %12, align 4
  br label %15

15:                                               ; preds = %129, %5
  %16 = load i32, ptr %12, align 4
  %17 = icmp sle i32 %16, 64
  br i1 %17, label %18, label %132

18:                                               ; preds = %15
  %19 = load i32, ptr %12, align 4
  %20 = icmp ne i32 %19, 64
  br i1 %20, label %21, label %64

21:                                               ; preds = %18
  %22 = load ptr, ptr %9, align 8
  %23 = load i32, ptr %11, align 4
  %24 = sext i32 %23 to i64
  %25 = getelementptr [3 x float], ptr %22, i64 %24
  %26 = getelementptr [3 x float], ptr %25, i64 0, i64 0
  %27 = load float, ptr %26, align 4
  %28 = load ptr, ptr %9, align 8
  %29 = load i32, ptr %12, align 4
  %30 = sext i32 %29 to i64
  %31 = getelementptr [3 x float], ptr %28, i64 %30
  %32 = getelementptr [3 x float], ptr %31, i64 0, i64 0
  %33 = load float, ptr %32, align 4
  %34 = fcmp oeq float %27, %33
  br i1 %34, label %35, label %64

35:                                               ; preds = %21
  %36 = load ptr, ptr %9, align 8
  %37 = load i32, ptr %11, align 4
  %38 = sext i32 %37 to i64
  %39 = getelementptr [3 x float], ptr %36, i64 %38
  %40 = getelementptr [3 x float], ptr %39, i64 0, i64 1
  %41 = load float, ptr %40, align 4
  %42 = load ptr, ptr %9, align 8
  %43 = load i32, ptr %12, align 4
  %44 = sext i32 %43 to i64
  %45 = getelementptr [3 x float], ptr %42, i64 %44
  %46 = getelementptr [3 x float], ptr %45, i64 0, i64 1
  %47 = load float, ptr %46, align 4
  %48 = fcmp oeq float %41, %47
  br i1 %48, label %49, label %64

49:                                               ; preds = %35
  %50 = load ptr, ptr %9, align 8
  %51 = load i32, ptr %11, align 4
  %52 = sext i32 %51 to i64
  %53 = getelementptr [3 x float], ptr %50, i64 %52
  %54 = getelementptr [3 x float], ptr %53, i64 0, i64 2
  %55 = load float, ptr %54, align 4
  %56 = load ptr, ptr %9, align 8
  %57 = load i32, ptr %12, align 4
  %58 = sext i32 %57 to i64
  %59 = getelementptr [3 x float], ptr %56, i64 %58
  %60 = getelementptr [3 x float], ptr %59, i64 0, i64 2
  %61 = load float, ptr %60, align 4
  %62 = fcmp oeq float %55, %61
  br i1 %62, label %63, label %64

63:                                               ; preds = %49
  br label %129

64:                                               ; preds = %49, %35, %21, %18
  %65 = load ptr, ptr %9, align 8
  %66 = load i32, ptr %11, align 4
  %67 = sext i32 %66 to i64
  %68 = getelementptr [3 x float], ptr %65, i64 %67
  %69 = getelementptr [3 x float], ptr %68, i64 0, i64 0
  %70 = load float, ptr %69, align 4
  %71 = fpext float %70 to double
  %72 = fcmp une double %71, 1.000000e+00
  br i1 %72, label %91, label %73

73:                                               ; preds = %64
  %74 = load ptr, ptr %9, align 8
  %75 = load i32, ptr %11, align 4
  %76 = sext i32 %75 to i64
  %77 = getelementptr [3 x float], ptr %74, i64 %76
  %78 = getelementptr [3 x float], ptr %77, i64 0, i64 1
  %79 = load float, ptr %78, align 4
  %80 = fpext float %79 to double
  %81 = fcmp une double %80, 1.000000e+00
  br i1 %81, label %91, label %82

82:                                               ; preds = %73
  %83 = load ptr, ptr %9, align 8
  %84 = load i32, ptr %11, align 4
  %85 = sext i32 %84 to i64
  %86 = getelementptr [3 x float], ptr %83, i64 %85
  %87 = getelementptr [3 x float], ptr %86, i64 0, i64 2
  %88 = load float, ptr %87, align 4
  %89 = fpext float %88 to double
  %90 = fcmp une double %89, 1.000000e+00
  br i1 %90, label %91, label %127

91:                                               ; preds = %82, %73, %64
  %92 = load ptr, ptr %6, align 8
  %93 = load i32, ptr %7, align 4
  %94 = sitofp i32 %93 to float
  %95 = load float, ptr %10, align 4
  %96 = fdiv float %94, %95
  %97 = fpext float %96 to double
  %98 = load i32, ptr %11, align 4
  %99 = sitofp i32 %98 to double
  %100 = load i32, ptr %8, align 4
  %101 = sitofp i32 %100 to float
  %102 = load float, ptr %10, align 4
  %103 = fdiv float %101, %102
  %104 = fpext float %103 to double
  %105 = load i32, ptr %12, align 4
  %106 = load i32, ptr %11, align 4
  %107 = sub i32 %105, %106
  %108 = sitofp i32 %107 to double
  call void @_ZN6QRectFC2Edddd(ptr noundef nonnull align 8 dereferenceable(32) %13, double noundef %97, double noundef %99, double noundef %104, double noundef %108) #13
  %109 = load ptr, ptr %9, align 8
  %110 = load i32, ptr %11, align 4
  %111 = sext i32 %110 to i64
  %112 = getelementptr [3 x float], ptr %109, i64 %111
  %113 = getelementptr [3 x float], ptr %112, i64 0, i64 0
  %114 = load float, ptr %113, align 4
  %115 = load ptr, ptr %9, align 8
  %116 = load i32, ptr %11, align 4
  %117 = sext i32 %116 to i64
  %118 = getelementptr [3 x float], ptr %115, i64 %117
  %119 = getelementptr [3 x float], ptr %118, i64 0, i64 1
  %120 = load float, ptr %119, align 4
  %121 = load ptr, ptr %9, align 8
  %122 = load i32, ptr %11, align 4
  %123 = sext i32 %122 to i64
  %124 = getelementptr [3 x float], ptr %121, i64 %123
  %125 = getelementptr [3 x float], ptr %124, i64 0, i64 2
  %126 = load float, ptr %125, align 4
  call void @_ZN6pcolorC2Efff(ptr noundef nonnull align 4 dereferenceable(14) %14, float noundef %114, float noundef %120, float noundef %126)
  call void @_ZN8QPainter8fillRectERK6QRectFRK6QColor(ptr noundef nonnull align 8 dereferenceable(8) %92, ptr noundef nonnull align 8 dereferenceable(32) %13, ptr noundef nonnull align 4 dereferenceable(14) %14)
  br label %127

127:                                              ; preds = %91, %82
  %128 = load i32, ptr %12, align 4
  store i32 %128, ptr %11, align 4
  br label %129

129:                                              ; preds = %127, %63
  %130 = load i32, ptr %12, align 4
  %131 = add i32 %130, 1
  store i32 %131, ptr %12, align 4
  br label %15, !llvm.loop !9

132:                                              ; preds = %15
  %133 = load ptr, ptr %9, align 8
  call void @_ZL9reset_rgbPA3_f(ptr noundef %133)
  ret void
}