; Function Attrs: mustprogress uwtable
define internal fastcc void @_ZL13render_pixelsR8QPainteriiPA3_ff(ptr noundef nonnull align 8 dereferenceable(8) %0, i32 noundef %1, ptr nocapture noundef %2, float noundef %3) unnamed_addr #0 {
  %5 = alloca %class.QRectF, align 8
  %6 = alloca %class.pcolor, align 4
  %7 = sitofp i32 %1 to float
  %8 = fdiv float %7, %3
  %9 = fpext float %8 to double
  %10 = fdiv float 1.000000e+00, %3
  %11 = fpext float %10 to double
  %12 = getelementptr inbounds i8, ptr %5, i64 8
  %13 = getelementptr inbounds i8, ptr %5, i64 16
  %14 = getelementptr inbounds i8, ptr %5, i64 24
  %15 = getelementptr inbounds i8, ptr %6, i64 4
  %16 = getelementptr inbounds i8, ptr %6, i64 6
  %17 = getelementptr inbounds i8, ptr %6, i64 10
  %18 = getelementptr inbounds i8, ptr %6, i64 12
  br label %19

19:                                               ; preds = %4, %71
  %indvars.iv = phi i64 [ 1, %4 ], [ %indvars.iv.next, %71 ]
  %.03637 = phi i32 [ 0, %4 ], [ %.1, %71 ]
  %.not = icmp eq i64 %indvars.iv, 64
  %.phi.trans.insert = sext i32 %.03637 to i64
  %.phi.trans.insert40 = getelementptr [3 x float], ptr %2, i64 %.phi.trans.insert
  %.pre = load float, ptr %.phi.trans.insert40, align 4
  br i1 %.not, label %._crit_edge, label %20

20:                                               ; preds = %19
  %21 = getelementptr [3 x float], ptr %2, i64 %indvars.iv
  %22 = load float, ptr %21, align 4
  %23 = fcmp oeq float %.pre, %22
  br i1 %23, label %24, label %._crit_edge

24:                                               ; preds = %20
  %25 = getelementptr i8, ptr %.phi.trans.insert40, i64 4
  %26 = load float, ptr %25, align 4
  %27 = getelementptr i8, ptr %21, i64 4
  %28 = load float, ptr %27, align 4
  %29 = fcmp oeq float %26, %28
  br i1 %29, label %30, label %._crit_edge

30:                                               ; preds = %24
  %31 = getelementptr i8, ptr %.phi.trans.insert40, i64 8
  %32 = load float, ptr %31, align 4
  %33 = getelementptr i8, ptr %21, i64 8
  %34 = load float, ptr %33, align 4
  %35 = fcmp oeq float %32, %34
  br i1 %35, label %71, label %._crit_edge

._crit_edge:                                      ; preds = %19, %30, %24, %20
  %36 = getelementptr [3 x float], ptr %2, i64 %.phi.trans.insert
  %37 = fcmp une float %.pre, 1.000000e+00
  %38 = trunc i64 %indvars.iv to i32
  %.phi.trans.insert42 = getelementptr i8, ptr %36, i64 4
  %.pre43 = load float, ptr %.phi.trans.insert42, align 4
  %39 = fcmp une float %.pre43, 1.000000e+00
  %or.cond = select i1 %37, i1 true, i1 %39
  br i1 %or.cond, label %._crit_edge41, label %40

40:                                               ; preds = %._crit_edge
  %41 = getelementptr i8, ptr %36, i64 8
  %42 = load float, ptr %41, align 4
  %43 = fcmp une float %42, 1.000000e+00
  br i1 %43, label %._crit_edge41, label %71

._crit_edge41:                                    ; preds = %._crit_edge, %40
  %44 = phi float [ 1.000000e+00, %40 ], [ %.pre43, %._crit_edge ]
  %45 = sitofp i32 %.03637 to double
  %46 = sub i32 %38, %.03637
  %47 = sitofp i32 %46 to double
  store double %9, ptr %5, align 8
  store double %45, ptr %12, align 8
  store double %11, ptr %13, align 8
  store double %47, ptr %14, align 8
  %48 = getelementptr i8, ptr %36, i64 8
  %49 = load float, ptr %48, align 4
  %50 = insertelement <2 x float> poison, float %.pre, i64 0
  %51 = insertelement <2 x float> %50, float %44, i64 1
  %52 = call <2 x float> @llvm.fmuladd.v2f32(<2 x float> %51, <2 x float> <float 0x3FE99999A0000000, float 0x3FE99999A0000000>, <2 x float> <float 0x3FB99999A0000000, float 0x3FB99999A0000000>)
  %53 = call float @llvm.fmuladd.f32(float %49, float 0x3FE99999A0000000, float 0x3FB99999A0000000)
  %54 = fmul float %53, 2.550000e+02
  %55 = fptosi float %54 to i32
  %56 = trunc i32 %55 to i16
  %57 = mul i16 %56, 257
  %58 = fmul <2 x float> %52, <float 2.550000e+02, float 2.550000e+02>
  %59 = fptosi <2 x float> %58 to <2 x i32>
  %shift = shufflevector <2 x i32> %59, <2 x i32> poison, <2 x i32> <i32 1, i32 poison>
  %60 = or <2 x i32> %shift, %59
  %61 = extractelement <2 x i32> %60, i64 0
  %62 = or i32 %61, %55
  %spec.select.i.i.i = icmp ult i32 %62, 256
  %63 = zext i1 %spec.select.i.i.i to i32
  store i32 %63, ptr %6, align 4
  %64 = sext i1 %spec.select.i.i.i to i16
  %65 = trunc <2 x i32> %59 to <2 x i16>
  %66 = mul <2 x i16> %65, <i16 257, i16 257>
  %67 = insertelement <2 x i1> poison, i1 %spec.select.i.i.i, i64 0
  %68 = shufflevector <2 x i1> %67, <2 x i1> poison, <2 x i32> zeroinitializer
  %69 = select <2 x i1> %68, <2 x i16> %66, <2 x i16> zeroinitializer
  %70 = select i1 %spec.select.i.i.i, i16 %57, i16 0
  store i16 %64, ptr %15, align 4
  store <2 x i16> %69, ptr %16, align 2
  store i16 %70, ptr %17, align 2
  store i16 0, ptr %18, align 4
  call void @_ZN8QPainter8fillRectERK6QRectFRK6QColor(ptr noundef nonnull align 8 dereferenceable(8) %0, ptr noundef nonnull align 8 dereferenceable(32) %5, ptr noundef nonnull align 4 dereferenceable(14) %6)
  br label %71

71:                                               ; preds = %40, %._crit_edge41, %30
  %.1 = phi i32 [ %.03637, %30 ], [ %38, %._crit_edge41 ], [ %38, %40 ]
  %indvars.iv.next = add nuw nsw i64 %indvars.iv, 1
  %exitcond.not = icmp eq i64 %indvars.iv.next, 65
  br i1 %exitcond.not, label %.preheader, label %19, !llvm.loop !16

.preheader:                                       ; preds = %71, %.preheader
  %indvars.iv.i = phi i64 [ %indvars.iv.next.i, %.preheader ], [ 0, %71 ]
  %72 = getelementptr [3 x float], ptr %2, i64 %indvars.iv.i
  %73 = getelementptr i8, ptr %72, i64 8
  store float 1.000000e+00, ptr %73, align 4
  store <2 x float> <float 1.000000e+00, float 1.000000e+00>, ptr %72, align 4
  %indvars.iv.next.i = add nuw nsw i64 %indvars.iv.i, 1
  %exitcond.not.i = icmp eq i64 %indvars.iv.next.i, 64
  br i1 %exitcond.not.i, label %_ZL9reset_rgbPA3_f.exit, label %.preheader, !llvm.loop !13

_ZL9reset_rgbPA3_f.exit:                          ; preds = %.preheader
  ret void
}